(iCopyBuild
BlockCollection
p1
(dp2
S'xLen'
p3
I3
sS'blockData'
p4
(lp5
(lp6
I1
aI0
aI23
aI44
aI0
aa(lp7
I1
aI1
aI23
aI109
aI6
aa(lp8
I1
aI2
aI23
aI98
aI0
aa(lp9
I1
aI3
aI23
aI109
aI2
aa(lp10
I2
aI0
aI23
aI44
aI0
aa(lp11
I2
aI1
aI23
aI44
aI5
aa(lp12
I2
aI3
aI23
aI44
aI13
aa(lp13
I3
aI0
aI23
aI44
aI0
aa(lp14
I3
aI1
aI23
aI109
aI7
aa(lp15
I3
aI3
aI23
aI109
aI3
aa(lp16
I4
aI0
aI23
aI44
aI0
aa(lp17
I5
aI0
aI23
aI44
aI0
aa(lp18
I5
aI1
aI23
aI98
aI0
aa(lp19
I5
aI2
aI23
aI98
aI0
aa(lp20
I5
aI3
aI23
aI109
aI2
aa(lp21
I6
aI0
aI23
aI44
aI0
aa(lp22
I6
aI2
aI23
aI44
aI5
aa(lp23
I6
aI3
aI23
aI44
aI13
aa(lp24
I7
aI0
aI23
aI44
aI0
aa(lp25
I7
aI1
aI23
aI98
aI0
aa(lp26
I7
aI2
aI23
aI98
aI0
aa(lp27
I7
aI3
aI23
aI109
aI3
aa(lp28
I8
aI0
aI23
aI44
aI0
aa(lp29
I9
aI0
aI23
aI44
aI0
aa(lp30
I9
aI1
aI23
aI98
aI0
aa(lp31
I9
aI2
aI23
aI98
aI0
aa(lp32
I9
aI3
aI23
aI98
aI0
aa(lp33
I10
aI0
aI23
aI44
aI0
aa(lp34
I10
aI2
aI23
aI109
aI6
aa(lp35
I11
aI0
aI23
aI44
aI0
aa(lp36
I11
aI1
aI23
aI98
aI0
aa(lp37
I11
aI2
aI23
aI98
aI0
aa(lp38
I11
aI3
aI23
aI98
aI0
aa(lp39
I12
aI0
aI23
aI44
aI0
aa(lp40
I13
aI0
aI23
aI44
aI0
aa(lp41
I13
aI1
aI23
aI98
aI0
aa(lp42
I13
aI2
aI23
aI98
aI0
aa(lp43
I13
aI3
aI23
aI98
aI0
aa(lp44
I14
aI0
aI23
aI44
aI0
aa(lp45
I14
aI2
aI23
aI109
aI6
aa(lp46
I15
aI0
aI23
aI44
aI0
aa(lp47
I15
aI1
aI23
aI98
aI0
aa(lp48
I15
aI2
aI23
aI98
aI0
aa(lp49
I15
aI3
aI23
aI98
aI0
aa(lp50
I16
aI0
aI23
aI44
aI0
aa(lp51
I17
aI0
aI23
aI44
aI0
aa(lp52
I17
aI1
aI23
aI109
aI6
aa(lp53
I17
aI2
aI23
aI98
aI0
aa(lp54
I17
aI3
aI23
aI109
aI2
aa(lp55
I18
aI0
aI23
aI44
aI0
aa(lp56
I18
aI1
aI23
aI44
aI5
aa(lp57
I18
aI3
aI23
aI44
aI13
aa(lp58
I19
aI0
aI23
aI44
aI0
aa(lp59
I19
aI1
aI23
aI109
aI7
aa(lp60
I19
aI2
aI23
aI98
aI0
aa(lp61
I19
aI3
aI23
aI109
aI3
aa(lp62
I20
aI0
aI23
aI44
aI0
aa(lp63
I21
aI0
aI23
aI44
aI0
aa(lp64
I21
aI1
aI23
aI98
aI0
aa(lp65
I21
aI2
aI23
aI98
aI0
aa(lp66
I21
aI3
aI23
aI98
aI0
aa(lp67
I22
aI0
aI23
aI44
aI0
aa(lp68
I22
aI2
aI23
aI109
aI6
aa(lp69
I23
aI0
aI23
aI44
aI0
aa(lp70
I23
aI1
aI23
aI98
aI0
aa(lp71
I23
aI2
aI23
aI98
aI0
aa(lp72
I23
aI3
aI23
aI98
aI0
aasS'zLen'
p73
I25
sS'yLen'
p74
I10
sS'numBlocks'
p75
I67
sb.