(iCopyBuild
BlockCollection
p1
(dp2
S'xLen'
p3
I4
sS'blockData'
p4
(lp5
(lp6
I3
aI0
aI2
aI4
aI0
aa(lp7
I3
aI1
aI2
aI4
aI0
aa(lp8
I3
aI2
aI2
aI85
aI0
aa(lp9
I3
aI0
aI1
aI4
aI0
aa(lp10
I3
aI1
aI1
aI4
aI0
aa(lp11
I3
aI2
aI1
aI85
aI0
aa(lp12
I2
aI0
aI3
aI4
aI0
aa(lp13
I2
aI1
aI3
aI4
aI0
aa(lp14
I2
aI2
aI3
aI85
aI0
aa(lp15
I2
aI0
aI0
aI4
aI0
aa(lp16
I2
aI1
aI0
aI4
aI0
aa(lp17
I2
aI2
aI0
aI85
aI0
aa(lp18
I1
aI0
aI3
aI4
aI0
aa(lp19
I1
aI1
aI3
aI4
aI0
aa(lp20
I1
aI2
aI3
aI85
aI0
aa(lp21
I1
aI0
aI0
aI4
aI0
aa(lp22
I1
aI1
aI0
aI4
aI0
aa(lp23
I1
aI2
aI0
aI85
aI0
aa(lp24
I0
aI0
aI2
aI4
aI0
aa(lp25
I0
aI1
aI2
aI4
aI0
aa(lp26
I0
aI2
aI2
aI85
aI0
aa(lp27
I0
aI0
aI1
aI4
aI0
aa(lp28
I0
aI1
aI1
aI4
aI0
aa(lp29
I0
aI2
aI1
aI85
aI0
aasS'zLen'
p30
I4
sS'yLen'
p31
I10
sS'numBlocks'
p32
I24
sb.